target datalayout = "e-m:e-p270:32:32-p271:32:32-p272:64:64-i64:64-i128:128-f80:128-n8:16:32:64-S128"
target triple = "x86_64-pc-linux-gnu"

%class.MemRegion = type { ptr, i64 }
%class.PSYoungGen = type { ptr, %class.MemRegion, ptr, ptr, ptr, ptr, i64, i64, ptr, ptr, ptr, ptr }

; Function Attrs: mustprogress nounwind uwtable
define linkonce_odr hidden noundef ptr @_ZNK10PSYoungGen8to_spaceEv(ptr noundef nonnull align 8 dereferenceable(104) %0) #1 comdat align 2 {
  %2 = alloca ptr, align 8
  store ptr %0, ptr %2, align 8
  %3 = load ptr, ptr %2, align 8
  %4 = getelementptr inbounds %class.PSYoungGen, ptr %3, i32 0, i32 5
  %5 = load ptr, ptr %4, align 8
  ret ptr %5
}

; Function Attrs: mustprogress nounwind uwtable
define linkonce_odr hidden noundef ptr @_ZNK10PSYoungGen10from_spaceEv(ptr noundef nonnull align 8 dereferenceable(104) %0) #1 comdat align 2 {
  %2 = alloca ptr, align 8
  store ptr %0, ptr %2, align 8
  %3 = load ptr, ptr %2, align 8
  %4 = getelementptr inbounds %class.PSYoungGen, ptr %3, i32 0, i32 4
  %5 = load ptr, ptr %4, align 8
  ret ptr %5
}

; Function Attrs: mustprogress nounwind uwtable
define linkonce_odr hidden noundef ptr @_ZNK10PSYoungGen10eden_spaceEv(ptr noundef nonnull align 8 dereferenceable(104) %0) #1 comdat align 2 {
  %2 = alloca ptr, align 8
  store ptr %0, ptr %2, align 8
  %3 = load ptr, ptr %2, align 8
  %4 = getelementptr inbounds %class.PSYoungGen, ptr %3, i32 0, i32 3
  %5 = load ptr, ptr %4, align 8
  ret ptr %5
}

; Function Attrs: mustprogress nounwind uwtable
define hidden void @_ZN10PSYoungGen6verifyEv(ptr noundef nonnull align 8 dereferenceable(104) %0) #1 align 2 {
  %2 = alloca ptr, align 8
  store ptr %0, ptr %2, align 8
  %3 = load ptr, ptr %2, align 8
  %4 = call noundef ptr @_ZNK10PSYoungGen10eden_spaceEv(ptr noundef nonnull align 8 dereferenceable(104) %3)
  %5 = load ptr, ptr %4, align 8
  %6 = getelementptr inbounds ptr, ptr %5, i64 20
  %7 = load ptr, ptr %6, align 8
  call void %7(ptr noundef nonnull align 8 dereferenceable(56) %4)
  %8 = call noundef ptr @_ZNK10PSYoungGen10from_spaceEv(ptr noundef nonnull align 8 dereferenceable(104) %3)
  %9 = load ptr, ptr %8, align 8
  %10 = getelementptr inbounds ptr, ptr %9, i64 20
  %11 = load ptr, ptr %10, align 8
  call void %11(ptr noundef nonnull align 8 dereferenceable(56) %8)
  %12 = call noundef ptr @_ZNK10PSYoungGen8to_spaceEv(ptr noundef nonnull align 8 dereferenceable(104) %3)
  %13 = load ptr, ptr %12, align 8
  %14 = getelementptr inbounds ptr, ptr %13, i64 20
  %15 = load ptr, ptr %14, align 8
  call void %15(ptr noundef nonnull align 8 dereferenceable(56) %12)
  ret void
}